; Function Attrs: nounwind uwtable
define dso_local range(i32 -1, 1) i32 @slurmdbd_unpack_id_rc_msg(ptr noundef writeonly captures(none) initializes((0, 8)) %0, i16 noundef zeroext %1, ptr noundef %2) #0 {
  %4 = tail call ptr @slurm_xcalloc(i64 noundef 1, i64 noundef 32, i1 noundef zeroext true, i1 noundef zeroext false, ptr noundef nonnull @.str, i32 noundef 1383, ptr noundef nonnull @__func__.slurmdbd_unpack_id_rc_msg) #5
  store ptr %4, ptr %0, align 8
  %5 = icmp ugt i16 %1, 10239
  br i1 %5, label %6, label %18

6:                                                ; preds = %3
  %7 = tail call i32 @unpack32(ptr noundef %4, ptr noundef %2) #5
  %.not = icmp eq i32 %7, 0
  br i1 %.not, label %8, label %17

8:                                                ; preds = %6
  %9 = getelementptr inbounds nuw i8, ptr %4, i64 8
  %10 = tail call i32 @unpack64(ptr noundef nonnull %9, ptr noundef %2) #5
  %.not13 = icmp eq i32 %10, 0
  br i1 %.not13, label %11, label %17

11:                                               ; preds = %8
  %12 = getelementptr inbounds nuw i8, ptr %4, i64 16
  %13 = tail call i32 @unpack64(ptr noundef nonnull %12, ptr noundef %2) #5
  %.not14 = icmp eq i32 %13, 0
  br i1 %.not14, label %14, label %17

14:                                               ; preds = %11
  %15 = getelementptr inbounds nuw i8, ptr %4, i64 24
  %16 = tail call i32 @unpack32(ptr noundef nonnull %15, ptr noundef %2) #5
  %.not15 = icmp eq i32 %16, 0
  br i1 %.not15, label %18, label %17

17:                                               ; preds = %14, %11, %8, %6
  tail call void @slurmdbd_free_id_rc_msg(ptr noundef %4) #5
  store ptr null, ptr %0, align 8
  br label %18

18:                                               ; preds = %3, %14, %17
  %.0 = phi i32 [ -1, %17 ], [ 0, %14 ], [ 0, %3 ]
  ret i32 %.0
}